target datalayout = "e-m:e-p270:32:32-p271:32:32-p272:64:64-i64:64-i128:128-f80:128-n8:16:32:64-S128"
target triple = "x86_64-pc-linux-gnu"

; Function Attrs: nounwind uwtable
define ptr @Mvc_CoverDivisor(ptr noundef %0) #0 {
  %2 = alloca ptr, align 8
  %3 = alloca ptr, align 8
  %4 = alloca ptr, align 8
  %5 = alloca i32, align 4
  store ptr %0, ptr %3, align 8, !tbaa !3
  call void @llvm.lifetime.start.p0(i64 8, ptr %4) #3
  %6 = load ptr, ptr %3, align 8, !tbaa !3
  %7 = call i32 @Mvc_CoverReadCubeNum(ptr noundef %6)
  %8 = icmp sle i32 %7, 1
  br i1 %8, label %9, label %10

9:                                                ; preds = %1
  store ptr null, ptr %2, align 8
  store i32 1, ptr %5, align 4
  br label %20

10:                                               ; preds = %1
  %11 = load ptr, ptr %3, align 8, !tbaa !3
  %12 = call i32 @Mvc_CoverAnyLiteral(ptr noundef %11, ptr noundef null)
  %13 = icmp eq i32 %12, -1
  br i1 %13, label %14, label %15

14:                                               ; preds = %10
  store ptr null, ptr %2, align 8
  store i32 1, ptr %5, align 4
  br label %20

15:                                               ; preds = %10
  %16 = load ptr, ptr %3, align 8, !tbaa !3
  %17 = call ptr @Mvc_CoverDup(ptr noundef %16)
  store ptr %17, ptr %4, align 8, !tbaa !3
  %18 = load ptr, ptr %4, align 8, !tbaa !3
  call void @Mvc_CoverDivisorZeroKernel(ptr noundef %18)
  %19 = load ptr, ptr %4, align 8, !tbaa !3
  store ptr %19, ptr %2, align 8
  store i32 1, ptr %5, align 4
  br label %20

20:                                               ; preds = %15, %14, %9
  call void @llvm.lifetime.end.p0(i64 8, ptr %4) #3
  %21 = load ptr, ptr %2, align 8
  ret ptr %21
}

; Function Attrs: nocallback nofree nosync nounwind willreturn memory(argmem: readwrite)
declare void @llvm.lifetime.start.p0(i64 immarg, ptr captures(none)) #1

declare i32 @Mvc_CoverReadCubeNum(ptr noundef) #2

declare i32 @Mvc_CoverAnyLiteral(ptr noundef, ptr noundef) #2

declare ptr @Mvc_CoverDup(ptr noundef) #2

; Function Attrs: nounwind uwtable
define internal void @Mvc_CoverDivisorZeroKernel(ptr noundef %0) #0 {
  %2 = alloca ptr, align 8
  %3 = alloca i32, align 4
  %4 = alloca i32, align 4
  store ptr %0, ptr %2, align 8, !tbaa !3
  call void @llvm.lifetime.start.p0(i64 4, ptr %3) #3
  %5 = load ptr, ptr %2, align 8, !tbaa !3
  %6 = call i32 @Mvc_CoverWorstLiteral(ptr noundef %5, ptr noundef null)
  store i32 %6, ptr %3, align 4, !tbaa !8
  %7 = load i32, ptr %3, align 4, !tbaa !8
  %8 = icmp eq i32 %7, -1
  br i1 %8, label %9, label %10

9:                                                ; preds = %1
  store i32 1, ptr %4, align 4
  br label %15

10:                                               ; preds = %1
  %11 = load ptr, ptr %2, align 8, !tbaa !3
  %12 = load i32, ptr %3, align 4, !tbaa !8
  call void @Mvc_CoverDivideByLiteralQuo(ptr noundef %11, i32 noundef %12)
  %13 = load ptr, ptr %2, align 8, !tbaa !3
  call void @Mvc_CoverMakeCubeFree(ptr noundef %13)
  %14 = load ptr, ptr %2, align 8, !tbaa !3
  call void @Mvc_CoverDivisorZeroKernel(ptr noundef %14)
  store i32 0, ptr %4, align 4
  br label %15

15:                                               ; preds = %10, %9
  call void @llvm.lifetime.end.p0(i64 4, ptr %3) #3
  %16 = load i32, ptr %4, align 4
  switch i32 %16, label %18 [
    i32 0, label %17
    i32 1, label %17
  ]

17:                                               ; preds = %15, %15
  ret void

18:                                               ; preds = %15
  unreachable
}

; Function Attrs: nocallback nofree nosync nounwind willreturn memory(argmem: readwrite)
declare void @llvm.lifetime.end.p0(i64 immarg, ptr captures(none)) #1

declare i32 @Mvc_CoverWorstLiteral(ptr noundef, ptr noundef) #2

declare void @Mvc_CoverDivideByLiteralQuo(ptr noundef, i32 noundef) #2

declare void @Mvc_CoverMakeCubeFree(ptr noundef) #2


!llvm.module.flags = !{!0, !1, !2}

!0 = !{i32 1, !"wchar_size", i32 4}
!1 = !{i32 8, !"PIC Level", i32 2}
!2 = !{i32 7, !"uwtable", i32 2}
!3 = !{!4, !4, i64 0}
!4 = !{!"p1 _ZTS14MvcCoverStruct", !5, i64 0}
!5 = !{!"any pointer", !6, i64 0}
!6 = !{!"omnipotent char", !7, i64 0}
!7 = !{!"Simple C/C++ TBAA"}
!8 = !{!9, !9, i64 0}
!9 = !{!"int", !6, i64 0}
